; Function Attrs: nounwind uwtable
define i32 @pmix_bfrops_base_pack_float(ptr noundef %0, ptr noundef %1, ptr noundef readonly captures(none) %2, i32 noundef %3, i16 noundef zeroext %4) local_unnamed_addr #0 {
  %6 = alloca ptr, align 8
  call void @llvm.lifetime.start.p0(i64 8, ptr nonnull %6) #8
  %7 = icmp sgt i32 %3, 0
  br i1 %7, label %.lr.ph, label %.loopexit

.lr.ph:                                           ; preds = %5
  %8 = getelementptr inbounds nuw i8, ptr %0, i64 128
  %9 = getelementptr inbounds nuw i8, ptr %0, i64 152
  %wide.trip.count = zext nneg i32 %3 to i64
  br label %10

10:                                               ; preds = %.lr.ph, %27
  %indvars.iv = phi i64 [ 0, %.lr.ph ], [ %indvars.iv.next, %27 ]
  %11 = getelementptr inbounds nuw float, ptr %2, i64 %indvars.iv
  %12 = load float, ptr %11, align 4, !tbaa !47
  %13 = fpext float %12 to double
  %14 = call i32 (ptr, ptr, ...) @asprintf(ptr noundef nonnull %6, ptr noundef nonnull @.str.8, double noundef %13) #8
  %15 = icmp slt i32 %14, 0
  br i1 %15, label %.loopexit, label %16

16:                                               ; preds = %10
  %17 = load i32, ptr %8, align 8, !tbaa !15
  %.not.i = icmp sgt i32 %17, 3
  br i1 %.not.i, label %pmix_pointer_array_get_item.exit, label %.thread, !prof !18

pmix_pointer_array_get_item.exit:                 ; preds = %16
  %18 = load ptr, ptr %9, align 8, !tbaa !19
  %19 = getelementptr inbounds nuw i8, ptr %18, i64 24
  %20 = load ptr, ptr %19, align 8, !tbaa !20
  %21 = icmp eq ptr %20, null
  br i1 %21, label %.thread, label %22

22:                                               ; preds = %pmix_pointer_array_get_item.exit
  %23 = getelementptr inbounds nuw i8, ptr %20, i64 136
  %24 = load ptr, ptr %23, align 8, !tbaa !21
  %25 = call i32 %24(ptr noundef nonnull %0, ptr noundef %1, ptr noundef nonnull %6, i32 noundef 1, i16 noundef zeroext 3) #8
  %.not = icmp eq i32 %25, 0
  br i1 %.not, label %27, label %.thread

.thread:                                          ; preds = %16, %pmix_pointer_array_get_item.exit, %22
  %.01420 = phi i32 [ %25, %22 ], [ -16, %pmix_pointer_array_get_item.exit ], [ -16, %16 ]
  %26 = load ptr, ptr %6, align 8, !tbaa !45
  call void @free(ptr noundef %26) #8
  br label %.loopexit

27:                                               ; preds = %22
  %28 = load ptr, ptr %6, align 8, !tbaa !45
  call void @free(ptr noundef %28) #8
  %indvars.iv.next = add nuw nsw i64 %indvars.iv, 1
  %exitcond.not = icmp eq i64 %indvars.iv.next, %wide.trip.count
  br i1 %exitcond.not, label %.loopexit, label %10, !llvm.loop !49

.loopexit:                                        ; preds = %10, %27, %5, %.thread
  %.0 = phi i32 [ %.01420, %.thread ], [ 0, %5 ], [ -29, %10 ], [ 0, %27 ]
  call void @llvm.lifetime.end.p0(i64 8, ptr nonnull %6) #8
  ret i32 %.0
}